; Function Attrs: nounwind uwtable
define noalias nonnull ptr @l_Lake_Toml_decodeFloat___boxed(ptr noundef %0) local_unnamed_addr #0 {
  %2 = tail call double @l_Lake_Toml_decodeFloat(ptr noundef %0)
  tail call void @lean_inc_heartbeat() #7
  %3 = tail call noalias ptr @mi_malloc_small(i64 noundef 16) #7
  %4 = icmp eq ptr %3, null
  br i1 %4, label %5, label %lean_box_float.exit

5:                                                ; preds = %1
  tail call void @lean_internal_panic_out_of_memory() #8
  unreachable

lean_box_float.exit:                              ; preds = %1
  %6 = getelementptr inbounds nuw i8, ptr %3, i64 4
  store i32 1, ptr %3, align 4, !tbaa !8
  store i32 16, ptr %6, align 4
  %7 = getelementptr inbounds nuw i8, ptr %3, i64 8
  store double %2, ptr %7, align 8, !tbaa !17
  ret ptr %3
}